target datalayout = "e-m:e-p270:32:32-p271:32:32-p272:64:64-i64:64-i128:128-f80:128-n8:16:32:64-S128"
target triple = "x86_64-unknown-linux-gnu"

%class.btMatrix3x3 = type { [3 x %class.btVector3] }
%class.btVector3 = type { [4 x float] }
%class.btDeformableContactConstraint = type { ptr, i8, ptr, %class.btVector3 }
%class.btCollisionObject = type <{ ptr, %class.btTransform, %class.btTransform, %class.btVector3, %class.btVector3, %class.btVector3, i32, float, ptr, ptr, ptr, ptr, i32, i32, i32, i32, i32, float, float, float, float, float, float, float, i32, [4 x i8], ptr, i32, i32, i32, float, float, float, i32, [4 x i8], %class.btAlignedObjectArray, i32, %class.btVector3, [4 x i8] }>
%class.btTransform = type { %class.btMatrix3x3, %class.btVector3 }
%class.btAlignedObjectArray = type <{ %class.btAlignedAllocator, [3 x i8], i32, i32, [4 x i8], ptr, i8, [7 x i8] }>
%class.btAlignedAllocator = type { i8 }
%class.btReducedDeformableRigidContactConstraint = type <{ %class.btDeformableRigidContactConstraint, i8, i8, [2 x i8], i32, i32, [4 x i8], ptr, ptr, float, float, float, float, float, float, float, float, float, float, float, float, float, float, float, float, float, %class.btVector3, %class.btVector3, %class.btVector3, %class.btVector3, %class.btVector3, %class.btVector3, %class.btMatrix3x3, %class.btVector3, %class.btVector3, %class.btVector3, %class.btVector3, %class.btVector3, %class.btVector3, [4 x i8] }>
%class.btDeformableRigidContactConstraint = type { %class.btDeformableContactConstraint, %class.btVector3, %class.btVector3, float, float, i8, ptr }

; Function Attrs: mustprogress nounwind uwtable
define linkonce_odr dso_local noundef nonnull align 4 dereferenceable(64) ptr @_ZN17btCollisionObject30getInterpolationWorldTransformEv(ptr noundef nonnull align 8 dereferenceable(372) %this) #1 comdat align 2 {
entry:
  %this.addr = alloca ptr, align 8
  store ptr %this, ptr %this.addr, align 8
  %this1 = load ptr, ptr %this.addr, align 8
  %m_interpolationWorldTransform = getelementptr inbounds %class.btCollisionObject, ptr %this1, i32 0, i32 2
  ret ptr %m_interpolationWorldTransform
}

; Function Attrs: mustprogress uwtable
define dso_local { <2 x float>, <2 x float> } @_ZNK45btReducedDeformableNodeRigidContactConstraint10getDeltaVbEv(ptr noundef nonnull align 8 dereferenceable(448) %this) unnamed_addr #5 align 2 {
entry:
  %retval = alloca %class.btVector3, align 4
  %this.addr = alloca ptr, align 8
  store ptr %this, ptr %this.addr, align 8
  %this1 = load ptr, ptr %this.addr, align 8
  %m_rsb = getelementptr inbounds %class.btReducedDeformableRigidContactConstraint, ptr %this1, i32 0, i32 7
  %0 = load ptr, ptr %m_rsb, align 8
  %m_rsb2 = getelementptr inbounds %class.btReducedDeformableRigidContactConstraint, ptr %this1, i32 0, i32 7
  %1 = load ptr, ptr %m_rsb2, align 8
  %call = call noundef nonnull align 4 dereferenceable(64) ptr @_ZN17btCollisionObject30getInterpolationWorldTransformEv(ptr noundef nonnull align 8 dereferenceable(372) %1)
  %m_nodeQueryIndex = getelementptr inbounds %class.btReducedDeformableRigidContactConstraint, ptr %this1, i32 0, i32 4
  %2 = load i32, ptr %m_nodeQueryIndex, align 4
  %call3 = call { <2 x float>, <2 x float> } @_ZNK23btReducedDeformableBody32internalComputeNodeDeltaVelocityERK11btTransformi(ptr noundef nonnull align 8 dereferenceable(3176) %0, ptr noundef nonnull align 4 dereferenceable(64) %call, i32 noundef %2)
  %coerce.dive = getelementptr inbounds %class.btVector3, ptr %retval, i32 0, i32 0
  %3 = getelementptr inbounds { <2 x float>, <2 x float> }, ptr %coerce.dive, i32 0, i32 0
  %4 = extractvalue { <2 x float>, <2 x float> } %call3, 0
  store <2 x float> %4, ptr %3, align 4
  %5 = getelementptr inbounds { <2 x float>, <2 x float> }, ptr %coerce.dive, i32 0, i32 1
  %6 = extractvalue { <2 x float>, <2 x float> } %call3, 1
  store <2 x float> %6, ptr %5, align 4
  %coerce.dive4 = getelementptr inbounds %class.btVector3, ptr %retval, i32 0, i32 0
  %7 = load { <2 x float>, <2 x float> }, ptr %coerce.dive4, align 4
  ret { <2 x float>, <2 x float> } %7
}