; Function Attrs: mustprogress uwtable
define dso_local { <2 x float>, <2 x float> } @_ZNK45btReducedDeformableNodeRigidContactConstraint10getDeltaVbEv(ptr nocapture noundef nonnull readonly align 8 dereferenceable(448) %this) unnamed_addr #3 align 2 {
entry:
  %m_rsb = getelementptr inbounds i8, ptr %this, i64 112
  %0 = load ptr, ptr %m_rsb, align 8
  %m_interpolationWorldTransform.i = getelementptr inbounds i8, ptr %0, i64 72
  %m_nodeQueryIndex = getelementptr inbounds i8, ptr %this, i64 100
  %1 = load i32, ptr %m_nodeQueryIndex, align 4
  %call3 = tail call { <2 x float>, <2 x float> } @_ZNK23btReducedDeformableBody32internalComputeNodeDeltaVelocityERK11btTransformi(ptr noundef nonnull align 8 dereferenceable(3176) %0, ptr noundef nonnull align 4 dereferenceable(64) %m_interpolationWorldTransform.i, i32 noundef %1)
  ret { <2 x float>, <2 x float> } %call3
}